#根据实体id来获取实体
?fetchEntity@Level@@UEBAPEAVActor@@UActorUniqueID@@_N@Z

#在世界的指定位置生成粒子效果
?spawnParticleEffect@Level@@UEAAXAEBV?$basic_string@DU?$char_traits@D@std@@V?$allocator@D@2@@std@@AEBVVec3@@PEAVDimension@@@Z

#游戏内显示消息
?displayLocalizableMessage@CommandUtils@@YAX_NAEAVPlayer@@AEBV?$basic_string@DU?$char_traits@D@std@@V?$allocator@D@2@@std@@AEBV?$vector@V?$basic_string@DU?$char_traits@D@std@@V?$allocator@D@2@@std@@V?$allocator@V?$basic_string@DU?$char_traits@D@std@@V?$allocator@D@2@@std@@@2@@4@@Z

#世界更新
?tick@ServerLevel@@UEAAXXZ

#玩家更新世界
#?tickWorld@ServerPlayer@@UEAAHAEBUTick@@@Z(old)
?tickWorld@ServerPlayer@@UEAAXAEBUTick@@@Z

#维度更新
?tick@Dimension@@UEAAXXZ

#区块更新
?tick@LevelChunk@@QEAAXAEAVBlockSource@@AEBUTick@@@Z

#随机刻更新
?tickBlocks@LevelChunk@@QEAAXAEAVBlockSource@@@Z

#方块实体更新
?tickBlockEntities@LevelChunk@@QEAAXAEAVBlockSource@@@Z

#计划刻更新
?tickPendingTicks@BlockTickingQueue@@QEAA_NAEAVBlockSource@@AEBUTick@@H_N@Z

#红石方块更新
?tickRedstone@Dimension@@UEAAXXZ

#实体更新
?tick@Actor@@QEAA_NAEAVBlockSource@@@Z

#获取实体调试信息
?getDebugText@Actor@@UEAAXAEAV?$vector@V?$basic_string@DU?$char_traits@D@std@@V?$allocator@D@2@@std@@V?$allocator@V?$basic_string@DU?$char_traits@D@std@@V?$allocator@D@2@@std@@@2@@std@@@Z

#获取实体位置
#?getPos@Actor@@UEBAAEBVVec3@@XZ
?getPosition@Actor@@UEBAAEBVVec3@@XZ

#获取实体的头顶标签
?getNameTag@Actor@@UEBAAEBV?$basic_string@DU?$char_traits@D@std@@V?$allocator@D@2@@std@@XZ

#爆炸
?explode@Explosion@@QEAAXXZ

#设置头顶的实体标签
?setNameTag@Actor@@UEAAXAEBV?$basic_string@DU?$char_traits@D@std@@V?$allocator@D@2@@std@@@Z

#获取实体视角
?getViewVector@Actor@@QEBA?AVVec3@@M@Z

#设置玩家游戏模式
?setPlayerGameType@ServerPlayer@@UEAAXW4GameType@@@Z

#从BlockSource中获取方块
?getBlock@BlockSource@@UEBAAEBVBlock@@AEBVBlockPos@@@Z

#同上，但是参数是int,int,int
?getBlock@BlockSource@@UEBAAEBVBlock@@HHH@Z

#利用blocksource设置方块
#?setBlock@BlockSource@@QEAA_NHHHAEBVBlock@@H@Z[1.18.12-]
?setBlock@BlockSource@@QEAA_NHHHAEBVBlock@@HPEAVActor@@@Z

#更新邻居方块
?updateNeighborsAt@BlockSource@@QEAAXAEBVBlockPos@@@Z

#获取方块调试信息
?toDebugString@Block@@QEBA?AV?$basic_string@DU?$char_traits@D@std@@V?$allocator@D@2@@std@@XZ

#获取带状态的方块信息
?tryGetStateFromLegacyData@BlockLegacy@@QEBAPEBVBlock@@G@Z

#获取群戏
?getBiome@BlockSource@@QEAAAEAVBiome@@AEBVBlockPos@@@Z

#村庄更新
?tick@Village@@QEAAXUTick@@AEAVBlockSource@@@Z

#获取村庄半径
?getApproximateRadius@Village@@QEBAMXZ

#获取床POI的数量
?getBedPOICount@Village@@QEBA_KXZ

#获取刷怪种类
?getMobToSpawn@BlockLegacy@@UEBAPEBVMobSpawnerData@@AEBVSpawnConditions@@AEAVBlockSource@@@Z

#结构刷怪检测
?_spawnStructureMob@Spawner@@AEAAXAEAVBlockSource@@AEBVBlockPos@@AEBUHardcodedSpawningArea@LevelChunk@@AEBVSpawnConditions@@@Z

#竖直方向的刷怪点查找
?findNextSpawnBlockUnder@Spawner@@SA_NAEBVBlockSource@@AEAVBlockPos@@W4MaterialType@@W4SpawnBlockRequirements@@@Z

#漏斗物品检测
?setItem@HopperBlockActor@@UEAAXHAEBVItemStack@@@Z

#物品右键方块
#?useOn@Item@@QEBA_NAEAVItemStack@@AEAVActor@@HHHEMMM@Z
?useOn@Item@@QEBA_NAEAVItemStack@@AEAVActor@@HHHEAEBVVec3@@@Z

#获取红石原件
?getBaseComponent@CircuitSceneGraph@@QEAAPEAVBaseCircuitComponent@@AEBVBlockPos@@@Z

#获取群戏类型
?getBiomeType@Biome@@QEBA?AW4VanillaBiomeTypes@@XZ

#获取网络ID的hash
?getHash@NetworkIdentifier@@QEBA_KXZ

#命令数据包拦截
?handle@ServerNetworkHandler@@UEAAXAEBVNetworkIdentifier@@AEBVCommandRequestPacket@@@Z

#命令注册
?registerCommand@CommandRegistry@@QEAAXAEBV?$basic_string@DU?$char_traits@D@std@@V?$allocator@D@2@@std@@PEBDW4CommandPermissionLevel@@UCommandFlag@@3@Z

#获取权限等级
?getCommandPermissionLevel@Player@@UEBA?AW4CommandPermissionLevel@@XZ

#方块类型注册
?forEachBlock@BlockTypeRegistry@@SAXV?$function@$$A6A_NAEBVBlockLegacy@@@Z@std@@@Z

#移除红石原件
?removeComponent@CircuitSceneGraph@@AEAAXAEBVBlockPos@@@Z

#从level中获取维度对象
?getDimension@Level@@UEBAPEAVDimension@@V?$AutomaticID@VDimension@@H@@@Z

#实体系统更新
?tickEntitySystems@Level@@UEAAXXZ

#红石原件的增加检测
?processPendingAdds@CircuitSceneGraph@@AEAAXXZ

#获取物品名称
?getName@ItemStackBase@@QEBA?AV?$basic_string@DU?$char_traits@D@std@@V?$allocator@D@2@@std@@XZ
#遍历玩家
?forEachPlayer@Level@@UEAAXV?$function@$$A6A_NAEAVPlayer@@@Z@std@@@Z


#获取用户验证的component
??$tryGetComponent@VUserEntityIdentifierComponent@@@Actor@@QEAAPEAVUserEntityIdentifierComponent@@XZ


#获取BlockSource
?getRegion@Actor@@QEBAAEAVBlockSource@@XZ


#获取区块坐标
?getPosition@LevelChunk@@QEBAAEBVChunkPos@@XZ

#从BlockActor获取Block对象
?getBlock@BlockActor@@QEBAPEBVBlock@@XZ


#容器删除物品
?removeItem@Container@@UEAAXHH@Z

#开容器
?_canOpenThis@ChestBlockActor@@MEBA_NAEAVBlockSource@@@Z

